; Function Attrs: mustprogress nounwind uwtable
define dso_local void @_ZN26btSoftBodyTriangleCallbackD2Ev(ptr noundef nonnull align 8 dereferenceable(220) initializes((0, 8)) %0) unnamed_addr #2 align 2 personality ptr @__gxx_personality_v0 {
  store ptr getelementptr inbounds nuw inrange(-16, 24) (i8, ptr @_ZTV26btSoftBodyTriangleCallback, i64 16), ptr %0, align 8, !tbaa !4
  %2 = getelementptr inbounds nuw i8, ptr %0, i64 156
  %3 = load i32, ptr %2, align 4, !tbaa !44
  %4 = icmp sgt i32 %3, 0
  br i1 %4, label %.lr.ph.i, label %._crit_edge.i

.lr.ph.i:                                         ; preds = %1
  %5 = getelementptr inbounds nuw i8, ptr %0, i64 168
  %6 = getelementptr inbounds nuw i8, ptr %0, i64 8
  br label %8

._crit_edge.i:                                    ; preds = %44, %1
  %7 = getelementptr inbounds nuw i8, ptr %0, i64 88
  invoke void @_ZN9btHashMapI9btHashKeyI10btTriIndexES1_E5clearEv(ptr noundef nonnull align 8 dereferenceable(128) %7)
          to label %_ZN26btSoftBodyTriangleCallback10clearCacheEv.exit unwind label %48

8:                                                ; preds = %44, %.lr.ph.i
  %indvars.iv.i = phi i64 [ 0, %.lr.ph.i ], [ %indvars.iv.next.i, %44 ]
  %9 = load ptr, ptr %5, align 8
  %10 = load ptr, ptr %6, align 8, !tbaa !55
  %11 = getelementptr inbounds nuw i8, ptr %10, i64 888
  %12 = load ptr, ptr %11, align 8, !tbaa !57
  %13 = getelementptr inbounds nuw %struct.btTriIndex, ptr %9, i64 %indvars.iv.i, i32 1
  %14 = load ptr, ptr %13, align 8, !tbaa !151
  %15 = getelementptr inbounds nuw i8, ptr %12, i64 68
  %16 = load i32, ptr %15, align 4, !tbaa !153
  %17 = icmp sgt i32 %16, 0
  br i1 %17, label %.lr.ph31.i.i, label %_ZN11btSparseSdfILi3EE16RemoveReferencesEP16btCollisionShape.exit.i

.lr.ph31.i.i:                                     ; preds = %8
  %18 = getelementptr inbounds nuw i8, ptr %12, i64 80
  br label %19

19:                                               ; preds = %._crit_edge.i.i, %.lr.ph31.i.i
  %20 = phi i32 [ %16, %.lr.ph31.i.i ], [ %35, %._crit_edge.i.i ]
  %indvars.iv.i.i = phi i64 [ 0, %.lr.ph31.i.i ], [ %indvars.iv.next.i.i, %._crit_edge.i.i ]
  %21 = load ptr, ptr %18, align 8, !tbaa !157
  %22 = getelementptr inbounds nuw ptr, ptr %21, i64 %indvars.iv.i.i
  %23 = load ptr, ptr %22, align 8, !tbaa !158
  %.not24.i.i = icmp eq ptr %23, null
  br i1 %.not24.i.i, label %._crit_edge.i.i, label %.lr.ph.i.i

.lr.ph.i.i:                                       ; preds = %19, %34
  %.01926.i.i = phi ptr [ %25, %34 ], [ %23, %19 ]
  %.02125.i.i = phi ptr [ %.120.i.i, %34 ], [ null, %19 ]
  %24 = getelementptr inbounds nuw i8, ptr %.01926.i.i, i64 288
  %25 = load ptr, ptr %24, align 8, !tbaa !160
  %26 = getelementptr inbounds nuw i8, ptr %.01926.i.i, i64 280
  %27 = load ptr, ptr %26, align 8, !tbaa !162
  %28 = icmp eq ptr %27, %14
  br i1 %28, label %29, label %34

29:                                               ; preds = %.lr.ph.i.i
  %.not23.i.i = icmp eq ptr %.02125.i.i, null
  br i1 %.not23.i.i, label %32, label %30

30:                                               ; preds = %29
  %31 = getelementptr inbounds nuw i8, ptr %.02125.i.i, i64 288
  store ptr %25, ptr %31, align 8, !tbaa !160
  br label %33

32:                                               ; preds = %29
  store ptr %25, ptr %22, align 8, !tbaa !158
  br label %33

33:                                               ; preds = %32, %30
  tail call void @_ZdlPvm(ptr noundef nonnull %.01926.i.i, i64 noundef 296) #16
  br label %34

34:                                               ; preds = %33, %.lr.ph.i.i
  %.120.i.i = phi ptr [ %.02125.i.i, %33 ], [ %.01926.i.i, %.lr.ph.i.i ]
  %.not.i.i = icmp eq ptr %25, null
  br i1 %.not.i.i, label %._crit_edge.loopexit.i.i, label %.lr.ph.i.i, !llvm.loop !163

._crit_edge.loopexit.i.i:                         ; preds = %34
  %.pre.i.i = load i32, ptr %15, align 4, !tbaa !153
  br label %._crit_edge.i.i

._crit_edge.i.i:                                  ; preds = %._crit_edge.loopexit.i.i, %19
  %35 = phi i32 [ %20, %19 ], [ %.pre.i.i, %._crit_edge.loopexit.i.i ]
  %indvars.iv.next.i.i = add nuw nsw i64 %indvars.iv.i.i, 1
  %36 = sext i32 %35 to i64
  %37 = icmp slt i64 %indvars.iv.next.i.i, %36
  br i1 %37, label %19, label %_ZN11btSparseSdfILi3EE16RemoveReferencesEP16btCollisionShape.exitthread-pre-split.i, !llvm.loop !165

_ZN11btSparseSdfILi3EE16RemoveReferencesEP16btCollisionShape.exitthread-pre-split.i: ; preds = %._crit_edge.i.i
  %.pr.i = load ptr, ptr %13, align 8, !tbaa !151
  br label %_ZN11btSparseSdfILi3EE16RemoveReferencesEP16btCollisionShape.exit.i

_ZN11btSparseSdfILi3EE16RemoveReferencesEP16btCollisionShape.exit.i: ; preds = %_ZN11btSparseSdfILi3EE16RemoveReferencesEP16btCollisionShape.exitthread-pre-split.i, %8
  %38 = phi ptr [ %.pr.i, %_ZN11btSparseSdfILi3EE16RemoveReferencesEP16btCollisionShape.exitthread-pre-split.i ], [ %14, %8 ]
  %39 = icmp eq ptr %38, null
  br i1 %39, label %44, label %40

40:                                               ; preds = %_ZN11btSparseSdfILi3EE16RemoveReferencesEP16btCollisionShape.exit.i
  %41 = load ptr, ptr %38, align 8, !tbaa !4
  %42 = getelementptr inbounds nuw i8, ptr %41, i64 8
  %43 = load ptr, ptr %42, align 8
  tail call void %43(ptr noundef nonnull align 8 dereferenceable(32) %38) #15
  br label %44

44:                                               ; preds = %40, %_ZN11btSparseSdfILi3EE16RemoveReferencesEP16btCollisionShape.exit.i
  %indvars.iv.next.i = add nuw nsw i64 %indvars.iv.i, 1
  %45 = load i32, ptr %2, align 4, !tbaa !44
  %46 = sext i32 %45 to i64
  %47 = icmp slt i64 %indvars.iv.next.i, %46
  br i1 %47, label %8, label %._crit_edge.i, !llvm.loop !166

_ZN26btSoftBodyTriangleCallback10clearCacheEv.exit: ; preds = %._crit_edge.i
  tail call void @_ZN9btHashMapI9btHashKeyI10btTriIndexES1_ED2Ev(ptr noundef nonnull align 8 dereferenceable(128) %7) #15
  tail call void @_ZN18btTriangleCallbackD2Ev(ptr noundef nonnull align 8 dereferenceable(8) %0) #15
  ret void

48:                                               ; preds = %._crit_edge.i
  %49 = landingpad { ptr, i32 }
          catch ptr null
  %50 = extractvalue { ptr, i32 } %49, 0
  tail call void @__clang_call_terminate(ptr %50) #17
  unreachable
}